; Function Attrs: mustprogress nofree norecurse nosync nounwind willreturn memory(readwrite, inaccessiblemem: none) uwtable
define noundef i32 @_Z16tMPI_Test_singleP11tmpi_threadP9tmpi_req_(ptr noundef captures(none) %0, ptr noundef captures(none) %1) local_unnamed_addr #7 {
  %3 = getelementptr inbounds nuw i8, ptr %1, i64 8
  %4 = load ptr, ptr %3, align 8, !tbaa !45
  %.not = icmp ne ptr %4, null
  %.pre18 = load i32, ptr %1, align 8, !tbaa !46
  %.not14 = icmp eq i32 %.pre18, 0
  %or.cond = select i1 %.not, i1 %.not14, i1 false
  br i1 %or.cond, label %5, label %41

5:                                                ; preds = %2
  %6 = getelementptr inbounds nuw i8, ptr %4, i64 60
  %7 = load i32, ptr %6, align 4, !tbaa !73
  %8 = icmp sgt i32 %7, 2
  br i1 %8, label %9, label %41

9:                                                ; preds = %5
  store i32 1, ptr %1, align 8, !tbaa !46
  %10 = getelementptr inbounds nuw i8, ptr %4, i64 124
  %11 = load i32, ptr %10, align 4, !tbaa !74
  %12 = getelementptr inbounds nuw i8, ptr %1, i64 36
  %13 = getelementptr inbounds nuw i8, ptr %4, i64 16
  %14 = load ptr, ptr %13, align 8, !tbaa !47
  %15 = getelementptr inbounds nuw i8, ptr %1, i64 16
  store ptr %14, ptr %15, align 8, !tbaa !48
  %16 = getelementptr inbounds nuw i8, ptr %4, i64 8
  %17 = load ptr, ptr %16, align 8, !tbaa !49
  %18 = getelementptr inbounds nuw i8, ptr %1, i64 24
  store ptr %17, ptr %18, align 8, !tbaa !50
  %19 = load i32, ptr %4, align 8, !tbaa !62
  %20 = getelementptr inbounds nuw i8, ptr %1, i64 32
  store i32 %19, ptr %20, align 8, !tbaa !51
  store i32 %11, ptr %12, align 4, !tbaa !55
  %21 = getelementptr inbounds nuw i8, ptr %4, i64 144
  %22 = load i32, ptr %21, align 8, !tbaa !72
  %.not.i = icmp eq i32 %22, 0
  br i1 %.not.i, label %23, label %27

23:                                               ; preds = %9
  %24 = icmp eq i32 %7, 3
  br i1 %24, label %_ZL12tMPI_Set_reqP8envelopeP9tmpi_req_.exit.thread17, label %_ZL12tMPI_Set_reqP8envelopeP9tmpi_req_.exit.thread

_ZL12tMPI_Set_reqP8envelopeP9tmpi_req_.exit.thread17: ; preds = %23
  %25 = getelementptr inbounds nuw i8, ptr %4, i64 40
  %26 = load i64, ptr %25, align 8, !tbaa !70
  br label %_ZL12tMPI_Set_reqP8envelopeP9tmpi_req_.exit.thread

27:                                               ; preds = %9
  %28 = getelementptr inbounds nuw i8, ptr %4, i64 40
  %29 = load i64, ptr %28, align 8, !tbaa !70
  %30 = getelementptr inbounds nuw i8, ptr %1, i64 40
  store i64 %29, ptr %30, align 8, !tbaa !57
  %31 = getelementptr inbounds nuw i8, ptr %4, i64 176
  %32 = load ptr, ptr %31, align 8, !tbaa !27
  %33 = load ptr, ptr %32, align 8, !tbaa !32
  %34 = getelementptr inbounds nuw i8, ptr %4, i64 136
  store ptr %33, ptr %34, align 8, !tbaa !10
  store ptr %4, ptr %32, align 8, !tbaa !32
  br label %41

_ZL12tMPI_Set_reqP8envelopeP9tmpi_req_.exit.thread: ; preds = %23, %_ZL12tMPI_Set_reqP8envelopeP9tmpi_req_.exit.thread17
  %.sink = phi i64 [ %26, %_ZL12tMPI_Set_reqP8envelopeP9tmpi_req_.exit.thread17 ], [ 0, %23 ]
  %35 = getelementptr inbounds nuw i8, ptr %1, i64 40
  store i64 %.sink, ptr %35, align 8, !tbaa !57
  %36 = getelementptr inbounds nuw i8, ptr %0, i64 208
  %37 = getelementptr inbounds nuw i8, ptr %4, i64 168
  %38 = getelementptr inbounds nuw i8, ptr %4, i64 128
  store ptr null, ptr %38, align 8, !tbaa !26
  tail call void @llvm.memset.p0.i64(ptr noundef nonnull align 8 dereferenceable(16) %37, i8 0, i64 16, i1 false)
  %39 = load ptr, ptr %36, align 8, !tbaa !9
  %40 = getelementptr inbounds nuw i8, ptr %4, i64 136
  store ptr %39, ptr %40, align 8, !tbaa !10
  store ptr %4, ptr %36, align 8, !tbaa !9
  %.pre = load i32, ptr %1, align 8, !tbaa !46
  br label %41

41:                                               ; preds = %5, %_ZL12tMPI_Set_reqP8envelopeP9tmpi_req_.exit.thread, %27, %2
  %42 = phi i32 [ 0, %5 ], [ %.pre, %_ZL12tMPI_Set_reqP8envelopeP9tmpi_req_.exit.thread ], [ 1, %27 ], [ %.pre18, %2 ]
  ret i32 %42
}